; Function Attrs: nounwind uwtable
define void @lv_roller_set_visible_row_count(ptr noundef %0, i32 noundef %1) local_unnamed_addr #0 {
  %.not = icmp eq ptr %0, null
  br i1 %.not, label %.preheader, label %3

.preheader:                                       ; preds = %2, %.preheader
  br label %.preheader

3:                                                ; preds = %2
  %4 = tail call ptr @lv_obj_get_style_prop(ptr noundef nonnull %0, i32 noundef 0, i8 noundef zeroext 90) #6
  %5 = tail call ptr @lv_obj_get_style_prop(ptr noundef nonnull %0, i32 noundef 0, i8 noundef zeroext 92) #6
  %6 = ptrtoint ptr %5 to i64
  %.sroa.0.0.extract.trunc.i = trunc i64 %6 to i32
  %7 = tail call ptr @lv_obj_get_style_prop(ptr noundef nonnull %0, i32 noundef 0, i8 noundef zeroext 48) #6
  %8 = ptrtoint ptr %7 to i64
  %.sroa.0.0.extract.trunc.i8 = trunc i64 %8 to i32
  %9 = tail call i32 @lv_font_get_line_height(ptr noundef %4) #6
  %10 = add nsw i32 %9, %.sroa.0.0.extract.trunc.i
  %11 = mul i32 %10, %1
  %12 = shl nsw i32 %.sroa.0.0.extract.trunc.i8, 1
  %13 = add i32 %11, %12
  tail call void @lv_obj_set_height(ptr noundef nonnull %0, i32 noundef %13) #6
  ret void
}